target datalayout = "e-m:e-p270:32:32-p271:32:32-p272:64:64-i64:64-i128:128-f80:128-n8:16:32:64-S128"
target triple = "x86_64-pc-linux-gnu"

%"class.absl::debian2::InlinedVector" = type { %"class.absl::debian2::inlined_vector_internal::Storage" }
%"class.absl::debian2::inlined_vector_internal::Storage" = type { %"class.absl::debian2::container_internal::CompressedTuple", %"union.absl::debian2::inlined_vector_internal::Storage<int, 4, std::allocator<int>>::Data" }
%"class.absl::debian2::container_internal::CompressedTuple" = type { %"struct.absl::debian2::container_internal::internal_compressed_tuple::CompressedTupleImpl" }
%"struct.absl::debian2::container_internal::internal_compressed_tuple::CompressedTupleImpl" = type { %"struct.absl::debian2::container_internal::internal_compressed_tuple::Storage.3" }
%"struct.absl::debian2::container_internal::internal_compressed_tuple::Storage.3" = type { i64 }
%"union.absl::debian2::inlined_vector_internal::Storage<int, 4, std::allocator<int>>::Data" = type { %"struct.absl::debian2::inlined_vector_internal::Storage<int, 4, std::allocator<int>>::Allocated" }
%"struct.absl::debian2::inlined_vector_internal::Storage<int, 4, std::allocator<int>>::Allocated" = type { ptr, i64 }
%"class.open_spiel::Observer.base" = type <{ ptr, i8, i8 }>
%"class.open_spiel::(anonymous namespace)::InformationStateObserver" = type <{ %"class.open_spiel::Observer.base", [6 x i8], %"class.absl::debian2::InlinedVector", i32, [4 x i8] }>

; Function Attrs: mustprogress nounwind uwtable
define linkonce_odr void @_ZNSt15__new_allocatorIiED2Ev(ptr noundef nonnull align 1 dereferenceable(1) %0) unnamed_addr #6 comdat align 2 {
  %2 = alloca ptr, align 8
  store ptr %0, ptr %2, align 8
  ret void
}

; Function Attrs: mustprogress nounwind uwtable
define linkonce_odr noundef nonnull align 8 dereferenceable(8) ptr @_ZNKR4absl7debian218container_internal25internal_compressed_tuple7StorageImLm1ELb0EE3getEv(ptr noundef nonnull align 8 dereferenceable(8) %0) #6 comdat align 2 {
  %2 = alloca ptr, align 8
  store ptr %0, ptr %2, align 8
  %3 = load ptr, ptr %2, align 8
  %4 = getelementptr inbounds nuw %"struct.absl::debian2::container_internal::internal_compressed_tuple::Storage.3", ptr %3, i32 0, i32 0
  ret ptr %4
}

; Function Attrs: mustprogress nounwind uwtable
define linkonce_odr void @_ZNSaIiED2Ev(ptr noundef nonnull align 1 dereferenceable(1) %0) unnamed_addr #6 comdat align 2 {
  %2 = alloca ptr, align 8
  store ptr %0, ptr %2, align 8
  %3 = load ptr, ptr %2, align 8
  call void @_ZNSt15__new_allocatorIiED2Ev(ptr noundef nonnull align 1 dereferenceable(1) %3) #3
  ret void
}

; Function Attrs: mustprogress nounwind uwtable
define linkonce_odr noundef nonnull align 1 dereferenceable(1) ptr @_ZNR4absl7debian218container_internal25internal_compressed_tuple7StorageISaIiELm0ELb1EE3getEv(ptr noundef nonnull align 1 dereferenceable(1) %0) #6 comdat align 2 {
  %2 = alloca ptr, align 8
  store ptr %0, ptr %2, align 8
  %3 = load ptr, ptr %2, align 8
  ret ptr %3
}

; Function Attrs: mustprogress uwtable
define linkonce_odr noundef nonnull align 8 dereferenceable(8) ptr @_ZNKR4absl7debian218container_internal15CompressedTupleIJSaIiEmEE3getILi1EEERKNS1_25internal_compressed_tuple4ElemIS4_XT_EE4typeEv(ptr noundef nonnull align 8 dereferenceable(8) %0) #4 comdat align 2 {
  %2 = alloca ptr, align 8
  store ptr %0, ptr %2, align 8
  %3 = load ptr, ptr %2, align 8
  %4 = call noundef nonnull align 8 dereferenceable(8) ptr @_ZNKR4absl7debian218container_internal25internal_compressed_tuple7StorageImLm1ELb0EE3getEv(ptr noundef nonnull align 8 dereferenceable(8) %3)
  ret ptr %4
}

; Function Attrs: mustprogress nounwind uwtable
define linkonce_odr void @_ZN4absl7debian218container_internal25internal_compressed_tuple7StorageISaIiELm0ELb1EED2Ev(ptr noundef nonnull align 1 dereferenceable(1) %0) unnamed_addr #6 comdat align 2 {
  %2 = alloca ptr, align 8
  store ptr %0, ptr %2, align 8
  %3 = load ptr, ptr %2, align 8
  call void @_ZNSaIiED2Ev(ptr noundef nonnull align 1 dereferenceable(1) %3) #3
  ret void
}

; Function Attrs: mustprogress nounwind uwtable
define linkonce_odr void @_ZNSt15__new_allocatorIiE10deallocateEPim(ptr noundef nonnull align 1 dereferenceable(1) %0, ptr noundef %1, i64 noundef %2) #6 comdat align 2 {
  %4 = alloca ptr, align 8
  %5 = alloca ptr, align 8
  %6 = alloca i64, align 8
  store ptr %0, ptr %4, align 8
  store ptr %1, ptr %5, align 8
  store i64 %2, ptr %6, align 8
  %7 = load ptr, ptr %5, align 8
  %8 = load i64, ptr %6, align 8
  %9 = mul i64 %8, 4
  call void @_ZdlPvm(ptr noundef %7, i64 noundef %9) #16
  ret void
}

; Function Attrs: mustprogress uwtable
define linkonce_odr noundef nonnull align 1 dereferenceable(1) ptr @_ZNR4absl7debian218container_internal15CompressedTupleIJSaIiEmEE3getILi0EEERNS1_25internal_compressed_tuple4ElemIS4_XT_EE4typeEv(ptr noundef nonnull align 8 dereferenceable(8) %0) #4 comdat align 2 {
  %2 = alloca ptr, align 8
  store ptr %0, ptr %2, align 8
  %3 = load ptr, ptr %2, align 8
  %4 = call noundef nonnull align 1 dereferenceable(1) ptr @_ZNR4absl7debian218container_internal25internal_compressed_tuple7StorageISaIiELm0ELb1EE3getEv(ptr noundef nonnull align 1 dereferenceable(1) %3)
  ret ptr %4
}

; Function Attrs: mustprogress uwtable
define linkonce_odr noundef nonnull align 8 dereferenceable(8) ptr @_ZNK4absl7debian223inlined_vector_internal7StorageIiLm4ESaIiEE21GetSizeAndIsAllocatedEv(ptr noundef nonnull align 8 dereferenceable(24) %0) #4 comdat align 2 {
  %2 = alloca ptr, align 8
  store ptr %0, ptr %2, align 8
  %3 = load ptr, ptr %2, align 8
  %4 = getelementptr inbounds nuw %"class.absl::debian2::inlined_vector_internal::Storage", ptr %3, i32 0, i32 0
  %5 = call noundef nonnull align 8 dereferenceable(8) ptr @_ZNKR4absl7debian218container_internal15CompressedTupleIJSaIiEmEE3getILi1EEERKNS1_25internal_compressed_tuple4ElemIS4_XT_EE4typeEv(ptr noundef nonnull align 8 dereferenceable(8) %4)
  ret ptr %5
}

; Function Attrs: mustprogress nounwind uwtable
define linkonce_odr noundef nonnull align 8 dereferenceable(8) ptr @_ZNR4absl7debian218container_internal25internal_compressed_tuple7StorageImLm1ELb0EE3getEv(ptr noundef nonnull align 8 dereferenceable(8) %0) #6 comdat align 2 {
  %2 = alloca ptr, align 8
  store ptr %0, ptr %2, align 8
  %3 = load ptr, ptr %2, align 8
  %4 = getelementptr inbounds nuw %"struct.absl::debian2::container_internal::internal_compressed_tuple::Storage.3", ptr %3, i32 0, i32 0
  ret ptr %4
}

; Function Attrs: mustprogress nounwind uwtable
define linkonce_odr void @_ZN4absl7debian218container_internal25internal_compressed_tuple19CompressedTupleImplINS1_15CompressedTupleIJSaIiEmEEENS0_16integer_sequenceImJLm0ELm1EEEELb1EED2Ev(ptr noundef nonnull align 8 dereferenceable(8) %0) unnamed_addr #6 comdat align 2 {
  %2 = alloca ptr, align 8
  store ptr %0, ptr %2, align 8
  %3 = load ptr, ptr %2, align 8
  call void @_ZN4absl7debian218container_internal25internal_compressed_tuple7StorageISaIiELm0ELb1EED2Ev(ptr noundef nonnull align 1 dereferenceable(1) %3) #3
  ret void
}

; Function Attrs: mustprogress uwtable
define linkonce_odr void @_ZNSt16allocator_traitsISaIiEE10deallocateERS0_Pim(ptr noundef nonnull align 1 dereferenceable(1) %0, ptr noundef %1, i64 noundef %2) #4 comdat align 2 {
  %4 = alloca ptr, align 8
  %5 = alloca ptr, align 8
  %6 = alloca i64, align 8
  store ptr %0, ptr %4, align 8
  store ptr %1, ptr %5, align 8
  store i64 %2, ptr %6, align 8
  %7 = load ptr, ptr %4, align 8
  %8 = load ptr, ptr %5, align 8
  %9 = load i64, ptr %6, align 8
  call void @_ZNSt15__new_allocatorIiE10deallocateEPim(ptr noundef nonnull align 1 dereferenceable(1) %7, ptr noundef %8, i64 noundef %9)
  ret void
}

; Function Attrs: mustprogress nounwind uwtable
define linkonce_odr noundef i64 @_ZNK4absl7debian223inlined_vector_internal7StorageIiLm4ESaIiEE20GetAllocatedCapacityEv(ptr noundef nonnull align 8 dereferenceable(24) %0) #6 comdat align 2 {
  %2 = alloca ptr, align 8
  store ptr %0, ptr %2, align 8
  %3 = load ptr, ptr %2, align 8
  %4 = getelementptr inbounds nuw %"class.absl::debian2::inlined_vector_internal::Storage", ptr %3, i32 0, i32 1
  %5 = getelementptr inbounds nuw %"struct.absl::debian2::inlined_vector_internal::Storage<int, 4, std::allocator<int>>::Allocated", ptr %4, i32 0, i32 1
  %6 = load i64, ptr %5, align 8
  ret i64 %6
}

; Function Attrs: mustprogress nounwind uwtable
define linkonce_odr noundef ptr @_ZN4absl7debian223inlined_vector_internal7StorageIiLm4ESaIiEE16GetAllocatedDataEv(ptr noundef nonnull align 8 dereferenceable(24) %0) #6 comdat align 2 {
  %2 = alloca ptr, align 8
  store ptr %0, ptr %2, align 8
  %3 = load ptr, ptr %2, align 8
  %4 = getelementptr inbounds nuw %"class.absl::debian2::inlined_vector_internal::Storage", ptr %3, i32 0, i32 1
  %5 = getelementptr inbounds nuw %"struct.absl::debian2::inlined_vector_internal::Storage<int, 4, std::allocator<int>>::Allocated", ptr %4, i32 0, i32 0
  %6 = load ptr, ptr %5, align 8
  ret ptr %6
}

; Function Attrs: mustprogress uwtable
define linkonce_odr noundef ptr @_ZN4absl7debian223inlined_vector_internal7StorageIiLm4ESaIiEE11GetAllocPtrEv(ptr noundef nonnull align 8 dereferenceable(24) %0) #4 comdat align 2 {
  %2 = alloca ptr, align 8
  store ptr %0, ptr %2, align 8
  %3 = load ptr, ptr %2, align 8
  %4 = getelementptr inbounds nuw %"class.absl::debian2::inlined_vector_internal::Storage", ptr %3, i32 0, i32 0
  %5 = call noundef nonnull align 1 dereferenceable(1) ptr @_ZNR4absl7debian218container_internal15CompressedTupleIJSaIiEmEE3getILi0EEERNS1_25internal_compressed_tuple4ElemIS4_XT_EE4typeEv(ptr noundef nonnull align 8 dereferenceable(8) %4)
  ret ptr %5
}

; Function Attrs: mustprogress uwtable
define linkonce_odr noundef zeroext i1 @_ZNK4absl7debian223inlined_vector_internal7StorageIiLm4ESaIiEE14GetIsAllocatedEv(ptr noundef nonnull align 8 dereferenceable(24) %0) #4 comdat align 2 {
  %2 = alloca ptr, align 8
  store ptr %0, ptr %2, align 8
  %3 = load ptr, ptr %2, align 8
  %4 = call noundef nonnull align 8 dereferenceable(8) ptr @_ZNK4absl7debian223inlined_vector_internal7StorageIiLm4ESaIiEE21GetSizeAndIsAllocatedEv(ptr noundef nonnull align 8 dereferenceable(24) %3)
  %5 = load i64, ptr %4, align 8
  %6 = and i64 %5, 1
  %7 = icmp ne i64 %6, 0
  ret i1 %7
}

; Function Attrs: mustprogress uwtable
define linkonce_odr noundef nonnull align 8 dereferenceable(8) ptr @_ZNR4absl7debian218container_internal15CompressedTupleIJSaIiEmEE3getILi1EEERNS1_25internal_compressed_tuple4ElemIS4_XT_EE4typeEv(ptr noundef nonnull align 8 dereferenceable(8) %0) #4 comdat align 2 {
  %2 = alloca ptr, align 8
  store ptr %0, ptr %2, align 8
  %3 = load ptr, ptr %2, align 8
  %4 = call noundef nonnull align 8 dereferenceable(8) ptr @_ZNR4absl7debian218container_internal25internal_compressed_tuple7StorageImLm1ELb0EE3getEv(ptr noundef nonnull align 8 dereferenceable(8) %3)
  ret ptr %4
}

; Function Attrs: noreturn nounwind uwtable
define linkonce_odr hidden void @__clang_call_terminate(ptr noundef %0) #8 comdat {
  %2 = call ptr @__cxa_begin_catch(ptr %0) #3
  call void @_ZSt9terminatev() #17
  unreachable
}

; Function Attrs: mustprogress nounwind uwtable
define linkonce_odr void @_ZN4absl7debian218container_internal15CompressedTupleIJSaIiEmEED2Ev(ptr noundef nonnull align 8 dereferenceable(8) %0) unnamed_addr #6 comdat align 2 {
  %2 = alloca ptr, align 8
  store ptr %0, ptr %2, align 8
  %3 = load ptr, ptr %2, align 8
  call void @_ZN4absl7debian218container_internal25internal_compressed_tuple19CompressedTupleImplINS1_15CompressedTupleIJSaIiEmEEENS0_16integer_sequenceImJLm0ELm1EEEELb1EED2Ev(ptr noundef nonnull align 8 dereferenceable(8) %3) #3
  ret void
}

; Function Attrs: mustprogress uwtable
define linkonce_odr void @_ZN4absl7debian223inlined_vector_internal7StorageIiLm4ESaIiEE21DeallocateIfAllocatedEv(ptr noundef nonnull align 8 dereferenceable(24) %0) #4 comdat align 2 {
  %2 = alloca ptr, align 8
  store ptr %0, ptr %2, align 8
  %3 = load ptr, ptr %2, align 8
  %4 = call noundef zeroext i1 @_ZNK4absl7debian223inlined_vector_internal7StorageIiLm4ESaIiEE14GetIsAllocatedEv(ptr noundef nonnull align 8 dereferenceable(24) %3)
  br i1 %4, label %5, label %9

5:                                                ; preds = %1
  %6 = call noundef ptr @_ZN4absl7debian223inlined_vector_internal7StorageIiLm4ESaIiEE11GetAllocPtrEv(ptr noundef nonnull align 8 dereferenceable(24) %3)
  %7 = call noundef ptr @_ZN4absl7debian223inlined_vector_internal7StorageIiLm4ESaIiEE16GetAllocatedDataEv(ptr noundef nonnull align 8 dereferenceable(24) %3)
  %8 = call noundef i64 @_ZNK4absl7debian223inlined_vector_internal7StorageIiLm4ESaIiEE20GetAllocatedCapacityEv(ptr noundef nonnull align 8 dereferenceable(24) %3)
  call void @_ZNSt16allocator_traitsISaIiEE10deallocateERS0_Pim(ptr noundef nonnull align 1 dereferenceable(1) %6, ptr noundef %7, i64 noundef %8)
  br label %9

9:                                                ; preds = %5, %1
  ret void
}

; Function Attrs: mustprogress uwtable
define linkonce_odr noundef nonnull align 8 dereferenceable(8) ptr @_ZN4absl7debian223inlined_vector_internal7StorageIiLm4ESaIiEE21GetSizeAndIsAllocatedEv(ptr noundef nonnull align 8 dereferenceable(24) %0) #4 comdat align 2 {
  %2 = alloca ptr, align 8
  store ptr %0, ptr %2, align 8
  %3 = load ptr, ptr %2, align 8
  %4 = getelementptr inbounds nuw %"class.absl::debian2::inlined_vector_internal::Storage", ptr %3, i32 0, i32 0
  %5 = call noundef nonnull align 8 dereferenceable(8) ptr @_ZNR4absl7debian218container_internal15CompressedTupleIJSaIiEmEE3getILi1EEERNS1_25internal_compressed_tuple4ElemIS4_XT_EE4typeEv(ptr noundef nonnull align 8 dereferenceable(8) %4)
  ret ptr %5
}

; Function Attrs: mustprogress nounwind uwtable
define linkonce_odr void @_ZN4absl7debian223inlined_vector_internal7StorageIiLm4ESaIiEED2Ev(ptr noundef nonnull align 8 dereferenceable(24) %0) unnamed_addr #6 comdat align 2 personality ptr @__gxx_personality_v0 {
  %2 = alloca ptr, align 8
  store ptr %0, ptr %2, align 8
  %3 = load ptr, ptr %2, align 8
  %4 = invoke noundef nonnull align 8 dereferenceable(8) ptr @_ZN4absl7debian223inlined_vector_internal7StorageIiLm4ESaIiEE21GetSizeAndIsAllocatedEv(ptr noundef nonnull align 8 dereferenceable(24) %3)
          to label %5 unwind label %13

5:                                                ; preds = %1
  %6 = load i64, ptr %4, align 8
  %7 = icmp eq i64 %6, 0
  br i1 %7, label %8, label %9

8:                                                ; preds = %5
  br label %11

9:                                                ; preds = %5
  invoke void @_ZN4absl7debian223inlined_vector_internal7StorageIiLm4ESaIiEE21DeallocateIfAllocatedEv(ptr noundef nonnull align 8 dereferenceable(24) %3)
          to label %10 unwind label %13

10:                                               ; preds = %9
  br label %11

11:                                               ; preds = %10, %8
  %12 = getelementptr inbounds nuw %"class.absl::debian2::inlined_vector_internal::Storage", ptr %3, i32 0, i32 0
  call void @_ZN4absl7debian218container_internal15CompressedTupleIJSaIiEmEED2Ev(ptr noundef nonnull align 8 dereferenceable(8) %12) #3
  ret void

13:                                               ; preds = %9, %1
  %14 = landingpad { ptr, i32 }
          catch ptr null
  %15 = extractvalue { ptr, i32 } %14, 0
  call void @__clang_call_terminate(ptr %15) #17
  unreachable
}

; Function Attrs: mustprogress nounwind uwtable
define linkonce_odr void @_ZN10open_spiel8ObserverD2Ev(ptr noundef nonnull align 8 dereferenceable(10) %0) unnamed_addr #6 comdat align 2 {
  %2 = alloca ptr, align 8
  store ptr %0, ptr %2, align 8
  ret void
}

; Function Attrs: mustprogress nounwind uwtable
define linkonce_odr void @_ZN4absl7debian213InlinedVectorIiLm4ESaIiEED2Ev(ptr noundef nonnull align 8 dereferenceable(24) %0) unnamed_addr #6 comdat align 2 {
  %2 = alloca ptr, align 8
  store ptr %0, ptr %2, align 8
  %3 = load ptr, ptr %2, align 8
  %4 = getelementptr inbounds nuw %"class.absl::debian2::InlinedVector", ptr %3, i32 0, i32 0
  call void @_ZN4absl7debian223inlined_vector_internal7StorageIiLm4ESaIiEED2Ev(ptr noundef nonnull align 8 dereferenceable(24) %4) #3
  ret void
}

; Function Attrs: mustprogress nounwind uwtable
define internal void @_ZN10open_spiel12_GLOBAL__N_124InformationStateObserverD2Ev(ptr noundef nonnull align 8 dereferenceable(44) %0) unnamed_addr #6 align 2 {
  %2 = alloca ptr, align 8
  store ptr %0, ptr %2, align 8
  %3 = load ptr, ptr %2, align 8
  store ptr getelementptr inbounds inrange(-16, 32) ({ [6 x ptr] }, ptr @_ZTVN10open_spiel12_GLOBAL__N_124InformationStateObserverE, i32 0, i32 0, i32 2), ptr %3, align 8
  %4 = getelementptr inbounds nuw %"class.open_spiel::(anonymous namespace)::InformationStateObserver", ptr %3, i32 0, i32 2
  call void @_ZN4absl7debian213InlinedVectorIiLm4ESaIiEED2Ev(ptr noundef nonnull align 8 dereferenceable(24) %4) #3
  call void @_ZN10open_spiel8ObserverD2Ev(ptr noundef nonnull align 8 dereferenceable(10) %3) #3
  ret void
}