; Function Attrs: mustprogress nounwind uwtable
define internal void @_ZN10open_spiel12_GLOBAL__N_124InformationStateObserverD2Ev(ptr noundef nonnull align 8 captures(none) dereferenceable(44) initializes((0, 8)) %0) unnamed_addr #5 align 2 personality ptr @__gxx_personality_v0 {
  store ptr getelementptr inbounds nuw inrange(-16, 32) (i8, ptr @_ZTVN10open_spiel12_GLOBAL__N_124InformationStateObserverE, i64 16), ptr %0, align 8
  %2 = getelementptr inbounds nuw i8, ptr %0, i64 16
  %3 = load i64, ptr %2, align 8
  %4 = and i64 %3, 1
  %.not.i.i.i = icmp eq i64 %4, 0
  br i1 %.not.i.i.i, label %_ZN4absl7debian213InlinedVectorIiLm4ESaIiEED2Ev.exit, label %5

5:                                                ; preds = %1
  %6 = getelementptr inbounds nuw i8, ptr %0, i64 24
  %7 = load ptr, ptr %6, align 8
  %8 = getelementptr inbounds nuw i8, ptr %0, i64 32
  %9 = load i64, ptr %8, align 8
  %10 = shl i64 %9, 2
  tail call void @_ZdlPvm(ptr noundef %7, i64 noundef %10) #25
  br label %_ZN4absl7debian213InlinedVectorIiLm4ESaIiEED2Ev.exit

_ZN4absl7debian213InlinedVectorIiLm4ESaIiEED2Ev.exit: ; preds = %1, %5
  ret void
}